target datalayout = "e-m:e-p270:32:32-p271:32:32-p272:64:64-i64:64-i128:128-f80:128-n8:16:32:64-S128"
target triple = "x86_64-pc-linux-gnu"

%struct.GenContext_ = type { i8, ptr, ptr, ptr, ptr, ptr, ptr, ptr, ptr, ptr, ptr, ptr, ptr, ptr, ptr, ptr, ptr, ptr, ptr, ptr, ptr, ptr, ptr, ptr, ptr, ptr, ptr, ptr, ptr, ptr, ptr, ptr, ptr, %struct.anon.85, i32, i32, %struct.DebugContext, ptr, ptr, ptr, %struct.BEValue, i8, %union.SourceSpan, ptr, ptr, ptr, ptr }
%struct.anon.85 = type { ptr, ptr, ptr }
%struct.DebugContext = type { i16, ptr, ptr, %struct.DebugFile_, ptr, ptr, ptr, ptr }
%struct.DebugFile_ = type { i16, ptr }
%struct.BEValue = type { i8, i32, ptr, ptr, ptr }
%union.SourceSpan = type { i64 }
%struct.VHeader_ = type { i32, i32, [0 x i8] }
%struct.anon = type { i16, i8, i8, i32 }
%struct.Type_ = type { i32, ptr, ptr, ptr, %union.anon.90, ptr, ptr, %union.anon.92 }
%union.anon.90 = type { ptr }
%union.anon.92 = type { %struct.TypeFunction }
%struct.TypeFunction = type { ptr, ptr, ptr }
%struct.TypeArray = type { ptr, i32 }

@id_counter = internal global i32 0, align 4

; Function Attrs: nounwind uwtable
define internal ptr @vec_new_(i64 noundef %0, i64 noundef %1) #0 {
  %3 = alloca i64, align 8
  %4 = alloca i64, align 8
  %5 = alloca ptr, align 8
  store i64 %0, ptr %3, align 8
  store i64 %1, ptr %4, align 8
  %6 = load i64, ptr %3, align 8
  %7 = load i64, ptr %4, align 8
  %8 = mul i64 %6, %7
  %9 = add i64 %8, 8
  %10 = call ptr @calloc_arena(i64 noundef %9)
  store ptr %10, ptr %5, align 8
  %11 = load i64, ptr %4, align 8
  %12 = trunc i64 %11 to i32
  %13 = load ptr, ptr %5, align 8
  %14 = getelementptr inbounds %struct.VHeader_, ptr %13, i32 0, i32 1
  store i32 %12, ptr %14, align 4
  %15 = load ptr, ptr %5, align 8
  ret ptr %15
}

; Function Attrs: nounwind uwtable
define dso_local ptr @llvm_get_debug_type(ptr noundef %0, ptr noundef %1) #0 {
  %3 = alloca ptr, align 8
  %4 = alloca ptr, align 8
  store ptr %0, ptr %3, align 8
  store ptr %1, ptr %4, align 8
  %5 = load ptr, ptr %3, align 8
  %6 = load ptr, ptr %4, align 8
  %7 = load ptr, ptr %3, align 8
  %8 = getelementptr inbounds %struct.GenContext_, ptr %7, i32 0, i32 36
  %9 = getelementptr inbounds %struct.DebugContext, ptr %8, i32 0, i32 3
  %10 = getelementptr inbounds %struct.DebugFile_, ptr %9, i32 0, i32 1
  %11 = load ptr, ptr %10, align 8
  %12 = call ptr @llvm_get_debug_type_internal(ptr noundef %5, ptr noundef %6, ptr noundef %11)
  ret ptr %12
}

; Function Attrs: nounwind uwtable
define internal ptr @llvm_debug_forward_comp(ptr noundef %0, ptr noundef %1, ptr noundef %2, ptr noundef %3, ptr noundef %4, i32 noundef %5) #0 {
  %7 = alloca ptr, align 8
  %8 = alloca ptr, align 8
  %9 = alloca ptr, align 8
  %10 = alloca ptr, align 8
  %11 = alloca ptr, align 8
  %12 = alloca i32, align 4
  %13 = alloca i32, align 4
  store ptr %0, ptr %7, align 8
  store ptr %1, ptr %8, align 8
  store ptr %2, ptr %9, align 8
  store ptr %3, ptr %10, align 8
  store ptr %4, ptr %11, align 8
  store i32 %5, ptr %12, align 4
  store i32 0, ptr %13, align 4
  %14 = load ptr, ptr %10, align 8
  %15 = icmp ne ptr %14, null
  br i1 %15, label %16, label %24

16:                                               ; preds = %6
  %17 = load ptr, ptr %10, align 8
  %18 = getelementptr inbounds %struct.anon, ptr %17, i32 0, i32 3
  %19 = load i32, ptr %18, align 4
  store i32 %19, ptr %13, align 4
  %20 = load i32, ptr %13, align 4
  %21 = icmp ne i32 %20, 0
  br i1 %21, label %23, label %22

22:                                               ; preds = %16
  store i32 1, ptr %13, align 4
  br label %23

23:                                               ; preds = %22, %16
  br label %24

24:                                               ; preds = %23, %6
  %25 = load ptr, ptr %7, align 8
  %26 = getelementptr inbounds %struct.GenContext_, ptr %25, i32 0, i32 36
  %27 = getelementptr inbounds %struct.DebugContext, ptr %26, i32 0, i32 1
  %28 = load ptr, ptr %27, align 8
  %29 = load i32, ptr @id_counter, align 4
  %30 = add i32 %29, 1
  store i32 %30, ptr @id_counter, align 4
  %31 = load ptr, ptr %8, align 8
  %32 = getelementptr inbounds %struct.Type_, ptr %31, i32 0, i32 2
  %33 = load ptr, ptr %32, align 8
  %34 = load ptr, ptr %8, align 8
  %35 = getelementptr inbounds %struct.Type_, ptr %34, i32 0, i32 2
  %36 = load ptr, ptr %35, align 8
  %37 = call i64 @strlen(ptr noundef %36) #5
  %38 = load ptr, ptr %11, align 8
  %39 = load ptr, ptr %7, align 8
  %40 = getelementptr inbounds %struct.GenContext_, ptr %39, i32 0, i32 36
  %41 = getelementptr inbounds %struct.DebugContext, ptr %40, i32 0, i32 3
  %42 = getelementptr inbounds %struct.DebugFile_, ptr %41, i32 0, i32 1
  %43 = load ptr, ptr %42, align 8
  %44 = load i32, ptr %13, align 4
  %45 = load ptr, ptr %7, align 8
  %46 = getelementptr inbounds %struct.GenContext_, ptr %45, i32 0, i32 36
  %47 = load i16, ptr %46, align 8
  %48 = and i16 %47, 255
  %49 = zext i16 %48 to i32
  %50 = load ptr, ptr %8, align 8
  %51 = call i32 @type_size(ptr noundef %50)
  %52 = mul i32 %51, 8
  %53 = zext i32 %52 to i64
  %54 = load ptr, ptr %8, align 8
  %55 = call i32 @type_abi_alignment(ptr noundef %54)
  %56 = mul i32 %55, 8
  %57 = load i32, ptr %12, align 4
  %58 = load ptr, ptr %9, align 8
  %59 = load ptr, ptr %9, align 8
  %60 = call i64 @strlen(ptr noundef %59) #5
  %61 = call ptr @LLVMDIBuilderCreateReplaceableCompositeType(ptr noundef %28, i32 noundef %29, ptr noundef %33, i64 noundef %37, ptr noundef %38, ptr noundef %43, i32 noundef %44, i32 noundef %49, i64 noundef %53, i32 noundef %56, i32 noundef %57, ptr noundef %58, i64 noundef %60)
  ret ptr %61
}

; Function Attrs: nounwind uwtable
define internal ptr @expand_(ptr noundef %0, i64 noundef %1) #0 {
  %3 = alloca ptr, align 8
  %4 = alloca i64, align 8
  %5 = alloca ptr, align 8
  %6 = alloca ptr, align 8
  %7 = alloca i64, align 8
  store ptr %0, ptr %3, align 8
  store i64 %1, ptr %4, align 8
  %8 = load ptr, ptr %3, align 8
  %9 = icmp ne ptr %8, null
  br i1 %9, label %13, label %10

10:                                               ; preds = %2
  %11 = load i64, ptr %4, align 8
  %12 = call ptr @vec_new_(i64 noundef %11, i64 noundef 8)
  store ptr %12, ptr %5, align 8
  br label %16

13:                                               ; preds = %2
  %14 = load ptr, ptr %3, align 8
  %15 = getelementptr inbounds %struct.VHeader_, ptr %14, i64 -1
  store ptr %15, ptr %5, align 8
  br label %16

16:                                               ; preds = %13, %10
  %17 = load ptr, ptr %5, align 8
  %18 = getelementptr inbounds %struct.VHeader_, ptr %17, i32 0, i32 0
  %19 = load i32, ptr %18, align 4
  %20 = load ptr, ptr %5, align 8
  %21 = getelementptr inbounds %struct.VHeader_, ptr %20, i32 0, i32 1
  %22 = load i32, ptr %21, align 4
  %23 = icmp eq i32 %19, %22
  br i1 %23, label %24, label %49

24:                                               ; preds = %16
  %25 = load i64, ptr %4, align 8
  %26 = load ptr, ptr %5, align 8
  %27 = getelementptr inbounds %struct.VHeader_, ptr %26, i32 0, i32 1
  %28 = load i32, ptr %27, align 4
  %29 = shl i32 %28, 1
  %30 = zext i32 %29 to i64
  %31 = call ptr @vec_new_(i64 noundef %25, i64 noundef %30)
  store ptr %31, ptr %6, align 8
  %32 = load i64, ptr %4, align 8
  %33 = load ptr, ptr %5, align 8
  %34 = getelementptr inbounds %struct.VHeader_, ptr %33, i32 0, i32 1
  %35 = load i32, ptr %34, align 4
  %36 = zext i32 %35 to i64
  %37 = mul i64 %32, %36
  %38 = add i64 %37, 8
  store i64 %38, ptr %7, align 8
  %39 = load ptr, ptr %6, align 8
  %40 = load ptr, ptr %5, align 8
  %41 = load i64, ptr %7, align 8
  call void @llvm.memcpy.p0.p0.i64(ptr align 4 %39, ptr align 4 %40, i64 %41, i1 false)
  %42 = load ptr, ptr %6, align 8
  store ptr %42, ptr %5, align 8
  %43 = load ptr, ptr %5, align 8
  %44 = getelementptr inbounds %struct.VHeader_, ptr %43, i32 0, i32 1
  %45 = load i32, ptr %44, align 4
  %46 = shl i32 %45, 1
  %47 = load ptr, ptr %6, align 8
  %48 = getelementptr inbounds %struct.VHeader_, ptr %47, i32 0, i32 1
  store i32 %46, ptr %48, align 4
  br label %49

49:                                               ; preds = %24, %16
  %50 = load ptr, ptr %5, align 8
  %51 = getelementptr inbounds %struct.VHeader_, ptr %50, i32 0, i32 0
  %52 = load i32, ptr %51, align 4
  %53 = add i32 %52, 1
  store i32 %53, ptr %51, align 4
  %54 = load ptr, ptr %5, align 8
  %55 = getelementptr inbounds %struct.VHeader_, ptr %54, i64 1
  ret ptr %55
}

; Function Attrs: nounwind uwtable
define internal ptr @llvm_debug_array_type(ptr noundef %0, ptr noundef %1) #0 {
  %3 = alloca i32, align 4
  %4 = alloca ptr, align 8
  %5 = alloca ptr, align 8
  %6 = alloca i32, align 4
  %7 = alloca ptr, align 8
  %8 = alloca ptr, align 8
  %9 = alloca ptr, align 8
  %10 = alloca ptr, align 8
  %11 = alloca ptr, align 8
  %12 = alloca ptr, align 8
  %13 = alloca ptr, align 8
  %14 = alloca ptr, align 8
  store ptr %0, ptr %9, align 8
  store ptr %1, ptr %10, align 8
  store ptr null, ptr %11, align 8
  %15 = load ptr, ptr %10, align 8
  store ptr %15, ptr %12, align 8
  br label %16

16:                                               ; preds = %64, %2
  %17 = load ptr, ptr %12, align 8
  %18 = getelementptr inbounds %struct.Type_, ptr %17, i32 0, i32 1
  %19 = load ptr, ptr %18, align 8
  %20 = getelementptr inbounds %struct.Type_, ptr %19, i32 0, i32 0
  %21 = load i32, ptr %20, align 8
  %22 = icmp eq i32 %21, 33
  br i1 %22, label %30, label %23

23:                                               ; preds = %16
  %24 = load ptr, ptr %12, align 8
  %25 = getelementptr inbounds %struct.Type_, ptr %24, i32 0, i32 1
  %26 = load ptr, ptr %25, align 8
  %27 = getelementptr inbounds %struct.Type_, ptr %26, i32 0, i32 0
  %28 = load i32, ptr %27, align 8
  %29 = icmp eq i32 %28, 35
  br label %30

30:                                               ; preds = %23, %16
  %31 = phi i1 [ true, %16 ], [ %29, %23 ]
  br i1 %31, label %32, label %71

32:                                               ; preds = %30
  br label %33

33:                                               ; preds = %32
  %34 = load ptr, ptr %11, align 8
  %35 = call ptr @expand_(ptr noundef %34, i64 noundef 8)
  store ptr %35, ptr %13, align 8
  %36 = load ptr, ptr %13, align 8
  store ptr %36, ptr %11, align 8
  %37 = load ptr, ptr %9, align 8
  %38 = getelementptr inbounds %struct.GenContext_, ptr %37, i32 0, i32 36
  %39 = getelementptr inbounds %struct.DebugContext, ptr %38, i32 0, i32 1
  %40 = load ptr, ptr %39, align 8
  %41 = load ptr, ptr %12, align 8
  %42 = getelementptr inbounds %struct.Type_, ptr %41, i32 0, i32 1
  %43 = load ptr, ptr %42, align 8
  %44 = getelementptr inbounds %struct.Type_, ptr %43, i32 0, i32 7
  %45 = getelementptr inbounds %struct.TypeArray, ptr %44, i32 0, i32 1
  %46 = load i32, ptr %45, align 8
  %47 = zext i32 %46 to i64
  %48 = call ptr @LLVMDIBuilderGetOrCreateSubrange(ptr noundef %40, i64 noundef 0, i64 noundef %47)
  %49 = load ptr, ptr %11, align 8
  %50 = load ptr, ptr %11, align 8
  store ptr %50, ptr %4, align 8
  %51 = load ptr, ptr %4, align 8
  %52 = icmp ne ptr %51, null
  br i1 %52, label %54, label %53

53:                                               ; preds = %33
  store i32 0, ptr %3, align 4
  br label %59

54:                                               ; preds = %33
  %55 = load ptr, ptr %4, align 8
  store ptr %55, ptr %5, align 8
  %56 = load ptr, ptr %5, align 8
  %57 = getelementptr inbounds %struct.VHeader_, ptr %56, i64 -1
  %58 = load i32, ptr %57, align 4
  store i32 %58, ptr %3, align 4
  br label %59

59:                                               ; preds = %54, %53
  %60 = load i32, ptr %3, align 4
  %61 = sub i32 %60, 1
  %62 = zext i32 %61 to i64
  %63 = getelementptr inbounds ptr, ptr %49, i64 %62
  store ptr %48, ptr %63, align 8
  br label %64

64:                                               ; preds = %59
  %65 = load ptr, ptr %12, align 8
  %66 = getelementptr inbounds %struct.Type_, ptr %65, i32 0, i32 1
  %67 = load ptr, ptr %66, align 8
  %68 = getelementptr inbounds %struct.Type_, ptr %67, i32 0, i32 7
  %69 = getelementptr inbounds %struct.TypeArray, ptr %68, i32 0, i32 0
  %70 = load ptr, ptr %69, align 8
  store ptr %70, ptr %12, align 8
  br label %16, !llvm.loop !13

71:                                               ; preds = %30
  %72 = load ptr, ptr %12, align 8
  %73 = getelementptr inbounds %struct.Type_, ptr %72, i32 0, i32 6
  %74 = load ptr, ptr %73, align 8
  %75 = icmp ne ptr %74, null
  br i1 %75, label %85, label %76

76:                                               ; preds = %71
  %77 = load ptr, ptr %9, align 8
  %78 = load ptr, ptr %10, align 8
  %79 = load ptr, ptr %10, align 8
  %80 = getelementptr inbounds %struct.Type_, ptr %79, i32 0, i32 2
  %81 = load ptr, ptr %80, align 8
  %82 = call ptr @llvm_debug_forward_comp(ptr noundef %77, ptr noundef %78, ptr noundef %81, ptr noundef null, ptr noundef null, i32 noundef 0)
  %83 = load ptr, ptr %10, align 8
  %84 = getelementptr inbounds %struct.Type_, ptr %83, i32 0, i32 6
  store ptr %82, ptr %84, align 8
  br label %85

85:                                               ; preds = %76, %71
  %86 = load ptr, ptr %9, align 8
  %87 = getelementptr inbounds %struct.GenContext_, ptr %86, i32 0, i32 36
  %88 = getelementptr inbounds %struct.DebugContext, ptr %87, i32 0, i32 1
  %89 = load ptr, ptr %88, align 8
  %90 = load ptr, ptr %10, align 8
  %91 = call i32 @type_size(ptr noundef %90)
  %92 = mul i32 %91, 8
  %93 = zext i32 %92 to i64
  %94 = load ptr, ptr %12, align 8
  %95 = call i32 @type_abi_alignment(ptr noundef %94)
  %96 = mul i32 %95, 8
  %97 = load ptr, ptr %9, align 8
  %98 = load ptr, ptr %12, align 8
  %99 = call ptr @llvm_get_debug_type(ptr noundef %97, ptr noundef %98)
  %100 = load ptr, ptr %11, align 8
  %101 = load ptr, ptr %11, align 8
  store ptr %101, ptr %7, align 8
  %102 = load ptr, ptr %7, align 8
  %103 = icmp ne ptr %102, null
  br i1 %103, label %105, label %104

104:                                              ; preds = %85
  store i32 0, ptr %6, align 4
  br label %110

105:                                              ; preds = %85
  %106 = load ptr, ptr %7, align 8
  store ptr %106, ptr %8, align 8
  %107 = load ptr, ptr %8, align 8
  %108 = getelementptr inbounds %struct.VHeader_, ptr %107, i64 -1
  %109 = load i32, ptr %108, align 4
  store i32 %109, ptr %6, align 4
  br label %110

110:                                              ; preds = %105, %104
  %111 = load i32, ptr %6, align 4
  %112 = call ptr @LLVMDIBuilderCreateArrayType(ptr noundef %89, i64 noundef %93, i32 noundef %96, ptr noundef %99, ptr noundef %100, i32 noundef %111)
  store ptr %112, ptr %14, align 8
  %113 = load ptr, ptr %10, align 8
  %114 = getelementptr inbounds %struct.Type_, ptr %113, i32 0, i32 6
  %115 = load ptr, ptr %114, align 8
  %116 = icmp ne ptr %115, null
  br i1 %116, label %117, label %122

117:                                              ; preds = %110
  %118 = load ptr, ptr %10, align 8
  %119 = getelementptr inbounds %struct.Type_, ptr %118, i32 0, i32 6
  %120 = load ptr, ptr %119, align 8
  %121 = load ptr, ptr %14, align 8
  call void @LLVMMetadataReplaceAllUsesWith(ptr noundef %120, ptr noundef %121)
  br label %122

122:                                              ; preds = %117, %110
  %123 = load ptr, ptr %14, align 8
  ret ptr %123
}