; Function Attrs: nounwind uwtable
define internal fastcc ptr @llvm_debug_array_type(ptr nocapture noundef readonly %0, ptr noundef %1) unnamed_addr #0 {
  %3 = getelementptr inbounds i8, ptr %0, i64 304
  br label %4

4:                                                ; preds = %31, %2
  %.035 = phi ptr [ null, %2 ], [ %34, %31 ]
  %.034 = phi ptr [ %1, %2 ], [ %47, %31 ]
  %5 = getelementptr inbounds i8, ptr %.034, i64 8
  %6 = load ptr, ptr %5, align 8
  %7 = load i32, ptr %6, align 8
  switch i32 %7, label %48 [
    i32 33, label %.critedge
    i32 35, label %.critedge
  ]

.critedge:                                        ; preds = %4, %4
  %.not.i = icmp eq ptr %.035, null
  br i1 %.not.i, label %8, label %11

8:                                                ; preds = %.critedge
  %9 = tail call ptr @calloc_arena(i64 noundef 72) #8
  %10 = getelementptr inbounds i8, ptr %9, i64 4
  store i32 8, ptr %10, align 4
  br label %13

11:                                               ; preds = %.critedge
  %12 = getelementptr inbounds i8, ptr %.035, i64 -8
  %.phi.trans.insert.i = getelementptr inbounds i8, ptr %.035, i64 -4
  %.pre.i = load i32, ptr %.phi.trans.insert.i, align 4
  br label %13

13:                                               ; preds = %11, %8
  %14 = phi i32 [ %.pre.i, %11 ], [ 8, %8 ]
  %.0.i = phi ptr [ %12, %11 ], [ %9, %8 ]
  %15 = load i32, ptr %.0.i, align 4
  %16 = icmp eq i32 %15, %14
  br i1 %16, label %17, label %31

17:                                               ; preds = %13
  %18 = getelementptr inbounds i8, ptr %.0.i, i64 4
  %19 = shl i32 %14, 1
  %20 = zext i32 %19 to i64
  %21 = shl nuw nsw i64 %20, 3
  %22 = or disjoint i64 %21, 8
  %23 = tail call ptr @calloc_arena(i64 noundef %22) #8
  %24 = getelementptr inbounds i8, ptr %23, i64 4
  store i32 %19, ptr %24, align 4
  %25 = load i32, ptr %18, align 4
  %26 = zext i32 %25 to i64
  %27 = shl nuw nsw i64 %26, 3
  %28 = add nuw nsw i64 %27, 8
  tail call void @llvm.memcpy.p0.p0.i64(ptr noundef nonnull align 4 dereferenceable(1) %23, ptr noundef nonnull align 4 dereferenceable(1) %.0.i, i64 %28, i1 false)
  %29 = load i32, ptr %24, align 4
  %30 = shl i32 %29, 1
  store i32 %30, ptr %24, align 4
  %.pre18.i = load i32, ptr %23, align 4
  br label %31

31:                                               ; preds = %13, %17
  %32 = phi i32 [ %.pre18.i, %17 ], [ %15, %13 ]
  %.1.i = phi ptr [ %23, %17 ], [ %.0.i, %13 ]
  %33 = add i32 %32, 1
  store i32 %33, ptr %.1.i, align 4
  %34 = getelementptr inbounds i8, ptr %.1.i, i64 8
  %35 = load ptr, ptr %3, align 8
  %36 = load ptr, ptr %5, align 8
  %37 = getelementptr inbounds i8, ptr %36, i64 64
  %38 = load i32, ptr %37, align 8
  %39 = zext i32 %38 to i64
  %40 = tail call ptr @LLVMDIBuilderGetOrCreateSubrange(ptr noundef %35, i64 noundef 0, i64 noundef %39) #8
  %41 = load i32, ptr %.1.i, align 4
  %42 = add i32 %41, -1
  %43 = zext i32 %42 to i64
  %44 = getelementptr inbounds ptr, ptr %34, i64 %43
  store ptr %40, ptr %44, align 8
  %45 = load ptr, ptr %5, align 8
  %46 = getelementptr inbounds i8, ptr %45, i64 56
  %47 = load ptr, ptr %46, align 8
  br label %4, !llvm.loop !13

48:                                               ; preds = %4
  %49 = getelementptr inbounds i8, ptr %.034, i64 48
  %50 = load ptr, ptr %49, align 8
  %.not = icmp eq ptr %50, null
  br i1 %.not, label %51, label %72

51:                                               ; preds = %48
  %52 = getelementptr inbounds i8, ptr %1, i64 16
  %53 = load ptr, ptr %52, align 8
  %54 = getelementptr inbounds i8, ptr %0, i64 296
  %55 = load ptr, ptr %3, align 8
  %56 = load i32, ptr @id_counter, align 4
  %57 = add i32 %56, 1
  store i32 %57, ptr @id_counter, align 4
  %58 = tail call i64 @strlen(ptr noundef nonnull dereferenceable(1) %53) #9
  %59 = getelementptr inbounds i8, ptr %0, i64 328
  %60 = load ptr, ptr %59, align 8
  %61 = load i16, ptr %54, align 8
  %62 = and i16 %61, 255
  %63 = zext nneg i16 %62 to i32
  %64 = tail call i32 @type_size(ptr noundef %1) #8
  %65 = shl i32 %64, 3
  %66 = zext i32 %65 to i64
  %67 = tail call i32 @type_abi_alignment(ptr noundef %1) #8
  %68 = shl i32 %67, 3
  %69 = tail call i64 @strlen(ptr noundef nonnull dereferenceable(1) %53) #9
  %70 = tail call ptr @LLVMDIBuilderCreateReplaceableCompositeType(ptr noundef %55, i32 noundef %56, ptr noundef %53, i64 noundef %58, ptr noundef null, ptr noundef %60, i32 noundef 0, i32 noundef %63, i64 noundef %66, i32 noundef %68, i32 noundef 0, ptr noundef %53, i64 noundef %69) #8
  %71 = getelementptr inbounds i8, ptr %1, i64 48
  store ptr %70, ptr %71, align 8
  br label %72

72:                                               ; preds = %51, %48
  %73 = load ptr, ptr %3, align 8
  %74 = tail call i32 @type_size(ptr noundef %1) #8
  %75 = shl i32 %74, 3
  %76 = zext i32 %75 to i64
  %77 = tail call i32 @type_abi_alignment(ptr noundef nonnull %.034) #8
  %78 = shl i32 %77, 3
  %79 = getelementptr inbounds i8, ptr %0, i64 328
  %80 = load ptr, ptr %79, align 8
  %81 = tail call fastcc ptr @llvm_get_debug_type_internal(ptr noundef %0, ptr noundef nonnull %.034, ptr noundef %80)
  %.not39 = icmp eq ptr %.035, null
  br i1 %.not39, label %85, label %82

82:                                               ; preds = %72
  %83 = getelementptr inbounds i8, ptr %.035, i64 -8
  %84 = load i32, ptr %83, align 4
  br label %85

85:                                               ; preds = %72, %82
  %.033 = phi i32 [ %84, %82 ], [ 0, %72 ]
  %86 = tail call ptr @LLVMDIBuilderCreateArrayType(ptr noundef %73, i64 noundef %76, i32 noundef %78, ptr noundef %81, ptr noundef %.035, i32 noundef %.033) #8
  %87 = getelementptr inbounds i8, ptr %1, i64 48
  %88 = load ptr, ptr %87, align 8
  %.not40 = icmp eq ptr %88, null
  br i1 %.not40, label %90, label %89

89:                                               ; preds = %85
  tail call void @LLVMMetadataReplaceAllUsesWith(ptr noundef nonnull %88, ptr noundef %86) #8
  br label %90

90:                                               ; preds = %89, %85
  ret ptr %86
}